; Function Attrs: nounwind uwtable
define noalias nonnull ptr @l___private_Lean_Compiler_LCNF_FloatLetIn_0__Lean_Compiler_LCNF_FloatLetIn_hashDecision____x40_Lean_Compiler_LCNF_FloatLetIn___hyg_16____boxed(ptr noundef %0) #1 {
  %2 = ptrtoint ptr %0 to i64
  %3 = and i64 %2, 1
  %.not.i.i = icmp eq i64 %3, 0
  br i1 %.not.i.i, label %7, label %4

4:                                                ; preds = %1
  %5 = lshr i64 %2, 1
  %6 = trunc i64 %5 to i32
  br label %lean_obj_tag.exit.i

7:                                                ; preds = %1
  %8 = getelementptr i8, ptr %0, i64 4
  %.val.i.i = load i32, ptr %8, align 4
  %9 = lshr i32 %.val.i.i, 24
  br label %lean_obj_tag.exit.i

lean_obj_tag.exit.i:                              ; preds = %7, %4
  %.0.i.i = phi i32 [ %6, %4 ], [ %9, %7 ]
  switch i32 %.0.i.i, label %16 [
    i32 0, label %10
    i32 1, label %l___private_Lean_Compiler_LCNF_FloatLetIn_0__Lean_Compiler_LCNF_FloatLetIn_hashDecision____x40_Lean_Compiler_LCNF_FloatLetIn___hyg_16_.exit
    i32 2, label %15
  ]

10:                                               ; preds = %lean_obj_tag.exit.i
  %11 = getelementptr inbounds nuw i8, ptr %0, i64 8
  %12 = load ptr, ptr %11, align 8, !tbaa !4
  %13 = tail call i64 @l_Lean_Name_hash___override(ptr noundef %12) #4
  %14 = tail call i64 @lean_uint64_mix_hash(i64 noundef 0, i64 noundef %13) #4
  br label %l___private_Lean_Compiler_LCNF_FloatLetIn_0__Lean_Compiler_LCNF_FloatLetIn_hashDecision____x40_Lean_Compiler_LCNF_FloatLetIn___hyg_16_.exit

15:                                               ; preds = %lean_obj_tag.exit.i
  br label %l___private_Lean_Compiler_LCNF_FloatLetIn_0__Lean_Compiler_LCNF_FloatLetIn_hashDecision____x40_Lean_Compiler_LCNF_FloatLetIn___hyg_16_.exit

16:                                               ; preds = %lean_obj_tag.exit.i
  br label %l___private_Lean_Compiler_LCNF_FloatLetIn_0__Lean_Compiler_LCNF_FloatLetIn_hashDecision____x40_Lean_Compiler_LCNF_FloatLetIn___hyg_16_.exit

l___private_Lean_Compiler_LCNF_FloatLetIn_0__Lean_Compiler_LCNF_FloatLetIn_hashDecision____x40_Lean_Compiler_LCNF_FloatLetIn___hyg_16_.exit: ; preds = %lean_obj_tag.exit.i, %10, %15, %16
  %.0.i = phi i64 [ 3, %16 ], [ 2, %15 ], [ %14, %10 ], [ 1, %lean_obj_tag.exit.i ]
  br i1 %.not.i.i, label %17, label %lean_dec.exit

17:                                               ; preds = %l___private_Lean_Compiler_LCNF_FloatLetIn_0__Lean_Compiler_LCNF_FloatLetIn_hashDecision____x40_Lean_Compiler_LCNF_FloatLetIn___hyg_16_.exit
  %18 = load i32, ptr %0, align 4, !tbaa !8
  %19 = icmp sgt i32 %18, 1
  br i1 %19, label %20, label %22, !prof !11

20:                                               ; preds = %17
  %21 = add nsw i32 %18, -1
  store i32 %21, ptr %0, align 4, !tbaa !8
  br label %lean_dec.exit

22:                                               ; preds = %17
  %.not.i = icmp eq i32 %18, 0
  br i1 %.not.i, label %lean_dec.exit, label %23

23:                                               ; preds = %22
  tail call void @lean_dec_ref_cold(ptr noundef nonnull %0) #4
  br label %lean_dec.exit

lean_dec.exit:                                    ; preds = %23, %22, %20, %l___private_Lean_Compiler_LCNF_FloatLetIn_0__Lean_Compiler_LCNF_FloatLetIn_hashDecision____x40_Lean_Compiler_LCNF_FloatLetIn___hyg_16_.exit
  tail call void @lean_inc_heartbeat() #4
  %24 = tail call noalias ptr @mi_malloc_small(i64 noundef 16) #4
  %25 = icmp eq ptr %24, null
  br i1 %25, label %26, label %lean_box_uint64.exit

26:                                               ; preds = %lean_dec.exit
  tail call void @lean_internal_panic_out_of_memory() #5
  unreachable

lean_box_uint64.exit:                             ; preds = %lean_dec.exit
  %27 = getelementptr inbounds nuw i8, ptr %24, i64 4
  store i32 1, ptr %24, align 4, !tbaa !8
  store i32 16, ptr %27, align 4
  %28 = getelementptr inbounds nuw i8, ptr %24, i64 8
  store i64 %.0.i, ptr %28, align 8, !tbaa !12
  ret ptr %24
}